(dp1
S'files'
p2
(dp3
S'_user_brown308_cse491_cse491_env_lib_python2_7_site-packages_nose_plugins_logcapture'
p4
(dp5
S'index'
p6
(dp7
S'html_filename'
p8
S'_user_brown308_cse491_cse491_env_lib_python2_7_site-packages_nose_plugins_logcapture.html'
p9
sS'name'
p10
S'/user/brown308/cse491/cse491.env/lib/python2.7/site-packages/nose/plugins/logcapture'
p11
sS'nums'
p12
ccopy_reg
_reconstructor
p13
(ccoverage.results
Numbers
p14
c__builtin__
object
p15
NtRp16
(dp17
S'n_files'
p18
I1
sS'n_branches'
p19
I0
sS'n_statements'
p20
I125
sS'n_excluded'
p21
I0
sS'n_partial_branches'
p22
I0
sS'n_missing'
p23
I114
sS'n_missing_branches'
p24
I0
sbssS'hash'
p25
S'\xccN\xe6\x86\x88`\x1e\xb7\xeb\xf4\x14^\x8f\xa5-\xf2'
p26
ssS'_user_brown308_cse491_cse491_env_lib_python2_7_site-packages_nose_plugins_manager'
p27
(dp28
g6
(dp29
g8
S'_user_brown308_cse491_cse491_env_lib_python2_7_site-packages_nose_plugins_manager.html'
p30
sg10
S'/user/brown308/cse491/cse491.env/lib/python2.7/site-packages/nose/plugins/manager'
p31
sg12
g13
(g14
g15
NtRp32
(dp33
g18
I1
sg19
I0
sg20
I265
sg21
I0
sg22
I0
sg23
I234
sg24
I0
sbssg25
S"\x06\x86\xacD~?\xc2d\x08C\xd2'xe5\xf8"
p34
ssS'_user_brown308_cse491_cse491_env_lib_python2_7_site-packages_nose_selector'
p35
(dp36
g6
(dp37
g8
S'_user_brown308_cse491_cse491_env_lib_python2_7_site-packages_nose_selector.html'
p38
sg10
S'/user/brown308/cse491/cse491.env/lib/python2.7/site-packages/nose/selector'
p39
sg12
g13
(g14
g15
NtRp40
(dp41
g18
I1
sg19
I0
sg20
I134
sg21
I0
sg22
I0
sg23
I75
sg24
I0
sbssg25
S'\xc2<\\Et\xda.\x83\xa8\xa6\x10\x15\x9a\x95\xfdL'
p42
ssS'_user_brown308_cse491_cse491_env_lib_python2_7_site-packages_nose_case'
p43
(dp44
g6
(dp45
g8
S'_user_brown308_cse491_cse491_env_lib_python2_7_site-packages_nose_case.html'
p46
sg10
S'/user/brown308/cse491/cse491.env/lib/python2.7/site-packages/nose/case'
p47
sg12
g13
(g14
g15
NtRp48
(dp49
g18
I1
sg19
I0
sg20
I204
sg21
I0
sg22
I0
sg23
I163
sg24
I0
sbssg25
S'\xedk3\xdb{\xf7\x95\xec\xcf\x98\xf2\xad46\xa7\xae'
p50
ssS'server'
p51
(dp52
g6
(dp53
g8
S'server.html'
p54
sg10
g51
sg12
g13
(g14
g15
NtRp55
(dp56
g18
I1
sg19
I0
sg20
I85
sg21
I0
sg22
I0
sg23
I17
sg24
I0
sbssg25
S'\xcf>\x8e\xb7\xf7\xb2`,\x96+9\x88\x19I\x13\x08'
p57
ssS'_user_brown308_cse491_cse491_env_lib_python2_7_site-packages_nose_plugins_cover'
p58
(dp59
g6
(dp60
g8
S'_user_brown308_cse491_cse491_env_lib_python2_7_site-packages_nose_plugins_cover.html'
p61
sg10
S'/user/brown308/cse491/cse491.env/lib/python2.7/site-packages/nose/plugins/cover'
p62
sg12
g13
(g14
g15
NtRp63
(dp64
g18
I1
sg19
I0
sg20
I138
sg21
I0
sg22
I0
sg23
I134
sg24
I0
sbssg25
S'WX\x92{\x8f\x10\xee\xbe\xb6d\xc4M\xe3O\x07\x91'
p65
ssS'_user_brown308_cse491_cse491_env_lib_python2_7_site-packages_nose_result'
p66
(dp67
g6
(dp68
g8
S'_user_brown308_cse491_cse491_env_lib_python2_7_site-packages_nose_result.html'
p69
sg10
S'/user/brown308/cse491/cse491.env/lib/python2.7/site-packages/nose/result'
p70
sg12
g13
(g14
g15
NtRp71
(dp72
g18
I1
sg19
I0
sg20
I131
sg21
I0
sg22
I0
sg23
I119
sg24
I0
sbssg25
S'\xbfT\xf7\xbd\xe5\x8b\xec~E\x94\xba\xbd\xd9\xcc\x84\x97'
p73
ssS'_user_brown308_cse491_cse491_env_lib_python2_7_site-packages_nose_pyversion'
p74
(dp75
g6
(dp76
g8
S'_user_brown308_cse491_cse491_env_lib_python2_7_site-packages_nose_pyversion.html'
p77
sg10
S'/user/brown308/cse491/cse491.env/lib/python2.7/site-packages/nose/pyversion'
p78
sg12
g13
(g14
g15
NtRp79
(dp80
g18
I1
sg19
I0
sg20
I92
sg21
I0
sg22
I0
sg23
I88
sg24
I0
sbssg25
S'\xca^\x90\xcb%\xe3\xfdu\xf3\x85\x02?C\re\xa7'
p81
ssS'test_server'
p82
(dp83
g6
(dp84
g8
S'test_server.html'
p85
sg10
g82
sg12
g13
(g14
g15
NtRp86
(dp87
g18
I1
sg19
I0
sg20
I61
sg21
I0
sg22
I0
sg23
I2
sg24
I0
sbssg25
S'\xef \xe1B\xd6$\x0f\x11\xc9\xa5\xabv\xbfS\x80\xe9'
p88
ssS'_user_brown308_cse491_cse491_env_lib_python2_7_site-packages_nose_importer'
p89
(dp90
g6
(dp91
g8
S'_user_brown308_cse491_cse491_env_lib_python2_7_site-packages_nose_importer.html'
p92
sg10
S'/user/brown308/cse491/cse491.env/lib/python2.7/site-packages/nose/importer'
p93
sg12
g13
(g14
g15
NtRp94
(dp95
g18
I1
sg19
I0
sg20
I101
sg21
I0
sg22
I0
sg23
I53
sg24
I0
sbssg25
S'\x9d\xbe<\xcdi\xa6=`!\xf4mX\xd7\x1a/*'
p96
ssS'_user_brown308_cse491_cse491_env_lib_python2_7_site-packages_nose_loader'
p97
(dp98
g6
(dp99
g8
S'_user_brown308_cse491_cse491_env_lib_python2_7_site-packages_nose_loader.html'
p100
sg10
S'/user/brown308/cse491/cse491.env/lib/python2.7/site-packages/nose/loader'
p101
sg12
g13
(g14
g15
NtRp102
(dp103
g18
I1
sg19
I0
sg20
I351
sg21
I0
sg22
I0
sg23
I239
sg24
I0
sbssg25
S'\xa6\xfa\xbb\xc1\xddXJN\xd2\xa9\xa6]\xe1=\xdb9'
p104
ssS'_user_brown308_cse491_cse491_env_lib_python2_7_site-packages_nose_plugins_capture'
p105
(dp106
g6
(dp107
g8
S'_user_brown308_cse491_cse491_env_lib_python2_7_site-packages_nose_plugins_capture.html'
p108
sg10
S'/user/brown308/cse491/cse491.env/lib/python2.7/site-packages/nose/plugins/capture'
p109
sg12
g13
(g14
g15
NtRp110
(dp111
g18
I1
sg19
I0
sg20
I66
sg21
I0
sg22
I0
sg23
I58
sg24
I0
sbssg25
S'A\x0b\x9b\xf8\x01]\x89\xc4!FIjJ\xc0\x9a\xd5'
p112
ssS'_user_brown308_cse491_cse491_env_lib_python2_7_site-packages_nose_core'
p113
(dp114
g6
(dp115
g8
S'_user_brown308_cse491_cse491_env_lib_python2_7_site-packages_nose_core.html'
p116
sg10
S'/user/brown308/cse491/cse491.env/lib/python2.7/site-packages/nose/core'
p117
sg12
g13
(g14
g15
NtRp118
(dp119
g18
I1
sg19
I0
sg20
I162
sg21
I0
sg22
I0
sg23
I140
sg24
I0
sbssg25
S'\x92\xc0\x98\xbb\xb98\xd2F\xc0\x06p\xc9\xd3\xe5\x1cP'
p120
ssS'_user_brown308_cse491_cse491_env_lib_python2_7_site-packages_nose_util'
p121
(dp122
g6
(dp123
g8
S'_user_brown308_cse491_cse491_env_lib_python2_7_site-packages_nose_util.html'
p124
sg10
S'/user/brown308/cse491/cse491.env/lib/python2.7/site-packages/nose/util'
p125
sg12
g13
(g14
g15
NtRp126
(dp127
g18
I1
sg19
I0
sg20
I341
sg21
I0
sg22
I0
sg23
I274
sg24
I0
sbssg25
S'WBA\xb2\xb9\xd8\x91A\t\xc5\xba\xfb$\xe6\x11\xe3'
p128
ssS'_user_brown308_cse491_cse491_env_lib_python2_7_site-packages_nose_plugins_errorclass'
p129
(dp130
g6
(dp131
g8
S'_user_brown308_cse491_cse491_env_lib_python2_7_site-packages_nose_plugins_errorclass.html'
p132
sg10
S'/user/brown308/cse491/cse491.env/lib/python2.7/site-packages/nose/plugins/errorclass'
p133
sg12
g13
(g14
g15
NtRp134
(dp135
g18
I1
sg19
I0
sg20
I65
sg21
I0
sg22
I0
sg23
I59
sg24
I0
sbssg25
S'4\x13v=\xdeK!\x190-\xf5\x00\xcd\n\x80_'
p136
ssS'_user_brown308_cse491_cse491_env_lib_python2_7_site-packages_nose_suite'
p137
(dp138
g6
(dp139
g8
S'_user_brown308_cse491_cse491_env_lib_python2_7_site-packages_nose_suite.html'
p140
sg10
S'/user/brown308/cse491/cse491.env/lib/python2.7/site-packages/nose/suite'
p141
sg12
g13
(g14
g15
NtRp142
(dp143
g18
I1
sg19
I0
sg20
I394
sg21
I0
sg22
I0
sg23
I236
sg24
I0
sbssg25
S'd\x00\xf4\xb4)y\xaa\xed\xb1\x93C\xb5\xeb\x7f\xad\xd6'
p144
ssS'_user_brown308_cse491_cse491_env_lib_python2_7_site-packages_nose_proxy'
p145
(dp146
g6
(dp147
g8
S'_user_brown308_cse491_cse491_env_lib_python2_7_site-packages_nose_proxy.html'
p148
sg10
S'/user/brown308/cse491/cse491.env/lib/python2.7/site-packages/nose/proxy'
p149
sg12
g13
(g14
g15
NtRp150
(dp151
g18
I1
sg19
I0
sg20
I108
sg21
I0
sg22
I0
sg23
I75
sg24
I0
sbssg25
S'\xa8?\x17\xc2j\xad\x13\xe7\x98w\xd3~\xe8\n\xc1\xe2'
p152
sssS'version'
p153
S'3.7.1'
p154
sS'settings'
p155
S'\x98\xa8x\xfe"r\xb5K\x98\xb1N\\\x99\x9e\xf3\xe5'
p156
sS'format'
p157
I1
s.